; Function Attrs: mustprogress uwtable
define noundef i32 @_ZN6icu_7514SearchIterator9precedingEiR10UErrorCode(ptr noundef nonnull align 8 dereferenceable(88) %this, i32 noundef %position, ptr noundef nonnull align 4 dereferenceable(4) %status) local_unnamed_addr #0 align 2 {
entry:
  %0 = load i32, ptr %status, align 4
  %cmp.i = icmp slt i32 %0, 1
  br i1 %cmp.i, label %if.end, label %return

if.end:                                           ; preds = %entry
  %vtable = load ptr, ptr %this, align 8
  %vfn = getelementptr inbounds i8, ptr %vtable, i64 24
  %1 = load ptr, ptr %vfn, align 8
  tail call void %1(ptr noundef nonnull align 8 dereferenceable(88) %this, i32 noundef %position, ptr noundef nonnull align 4 dereferenceable(4) %status)
  %vtable2 = load ptr, ptr %this, align 8
  %vfn3 = getelementptr inbounds i8, ptr %vtable2, i64 88
  %2 = load ptr, ptr %vfn3, align 8
  %call4 = tail call noundef i32 %2(ptr noundef nonnull align 8 dereferenceable(88) %this, i32 noundef %position, ptr noundef nonnull align 4 dereferenceable(4) %status)
  br label %return

return:                                           ; preds = %entry, %if.end
  %retval.0 = phi i32 [ %call4, %if.end ], [ -1, %entry ]
  ret i32 %retval.0
}